; Function Attrs: nounwind uwtable
define ptr @l___private_Lean_Environment_0__Lean_setImportedEntries_unsafe__4(ptr noundef readonly captures(none) %0, ptr noundef %1, ptr noundef %2, ptr noundef %3, ptr noundef %4) local_unnamed_addr #1 {
  %6 = load ptr, ptr @l___private_Lean_Environment_0__Lean_setImportedEntries_unsafe__4___closed__1, align 8, !tbaa !9
  %7 = ptrtoint ptr %4 to i64
  %8 = and i64 %7, 1
  %.not.i18 = icmp eq i64 %8, 0
  br i1 %.not.i18, label %lean_array_uget.exit.i, label %9

9:                                                ; preds = %5
  %10 = lshr i64 %7, 1
  %11 = getelementptr i8, ptr %0, i64 8
  %.val.i = load i64, ptr %11, align 8, !tbaa !15
  %12 = icmp ult i64 %10, %.val.i
  br i1 %12, label %13, label %lean_array_uget.exit.i

13:                                               ; preds = %9
  %14 = ptrtoint ptr %6 to i64
  %15 = and i64 %14, 1
  %.not14.i = icmp eq i64 %15, 0
  br i1 %.not14.i, label %16, label %lean_dec.exit.i

16:                                               ; preds = %13
  %17 = load i32, ptr %6, align 4, !tbaa !4
  %18 = icmp sgt i32 %17, 1
  br i1 %18, label %19, label %21, !prof !11

19:                                               ; preds = %16
  %20 = add nsw i32 %17, -1
  store i32 %20, ptr %6, align 4, !tbaa !4
  br label %lean_dec.exit.i

21:                                               ; preds = %16
  %.not.i.i = icmp eq i32 %17, 0
  br i1 %.not.i.i, label %lean_dec.exit.i, label %22

22:                                               ; preds = %21
  tail call void @lean_dec_ref_cold(ptr noundef nonnull %6) #10
  br label %lean_dec.exit.i

lean_dec.exit.i:                                  ; preds = %22, %21, %19, %13
  %23 = getelementptr inbounds nuw i8, ptr %0, i64 24
  %24 = getelementptr inbounds nuw [0 x ptr], ptr %23, i64 0, i64 %10
  %25 = load ptr, ptr %24, align 8, !tbaa !9
  %26 = ptrtoint ptr %25 to i64
  %27 = and i64 %26, 1
  %.not.i11.i = icmp eq i64 %27, 0
  br i1 %.not.i11.i, label %28, label %lean_array_get.exit

28:                                               ; preds = %lean_dec.exit.i
  %.val.i.i.i = load i32, ptr %25, align 4, !tbaa !4
  %29 = icmp sgt i32 %.val.i.i.i, 0
  br i1 %29, label %30, label %32, !prof !11

30:                                               ; preds = %28
  %31 = add nuw i32 %.val.i.i.i, 1
  store i32 %31, ptr %25, align 4, !tbaa !4
  br label %lean_array_get.exit

32:                                               ; preds = %28
  %.not.i.i.i = icmp eq i32 %.val.i.i.i, 0
  br i1 %.not.i.i.i, label %lean_array_get.exit, label %33

33:                                               ; preds = %32
  tail call void @lean_inc_ref_cold(ptr noundef nonnull %25) #10
  br label %lean_array_get.exit

lean_array_uget.exit.i:                           ; preds = %9, %5
  %34 = tail call ptr @lean_array_get_panic(ptr noundef %6) #10
  br label %lean_array_get.exit

lean_array_get.exit:                              ; preds = %lean_dec.exit.i, %30, %32, %33, %lean_array_uget.exit.i
  %.1.i = phi ptr [ %34, %lean_array_uget.exit.i ], [ %25, %33 ], [ %25, %32 ], [ %25, %30 ], [ %25, %lean_dec.exit.i ]
  %35 = getelementptr inbounds nuw i8, ptr %.1.i, i64 8
  %36 = load ptr, ptr %35, align 8, !tbaa !9
  %37 = ptrtoint ptr %36 to i64
  %38 = and i64 %37, 1
  %.not = icmp eq i64 %38, 0
  br i1 %.not, label %39, label %lean_inc.exit

39:                                               ; preds = %lean_array_get.exit
  %.val.i19 = load i32, ptr %36, align 4, !tbaa !4
  %40 = icmp sgt i32 %.val.i19, 0
  br i1 %40, label %41, label %43, !prof !11

41:                                               ; preds = %39
  %42 = add nuw i32 %.val.i19, 1
  store i32 %42, ptr %36, align 4, !tbaa !4
  br label %lean_inc.exit

43:                                               ; preds = %39
  %.not.i20 = icmp eq i32 %.val.i19, 0
  br i1 %.not.i20, label %lean_inc.exit, label %44

44:                                               ; preds = %43
  tail call void @lean_inc_ref_cold(ptr noundef nonnull %36) #10
  br label %lean_inc.exit

lean_inc.exit:                                    ; preds = %44, %43, %41, %lean_array_get.exit
  %45 = ptrtoint ptr %.1.i to i64
  %46 = and i64 %45, 1
  %.not21 = icmp eq i64 %46, 0
  br i1 %.not21, label %47, label %lean_dec.exit15

47:                                               ; preds = %lean_inc.exit
  %48 = load i32, ptr %.1.i, align 4, !tbaa !4
  %49 = icmp sgt i32 %48, 1
  br i1 %49, label %50, label %52, !prof !11

50:                                               ; preds = %47
  %51 = add nsw i32 %48, -1
  store i32 %51, ptr %.1.i, align 4, !tbaa !4
  br label %lean_dec.exit15

52:                                               ; preds = %47
  %.not.i = icmp eq i32 %48, 0
  br i1 %.not.i, label %lean_dec.exit15, label %53

53:                                               ; preds = %52
  tail call void @lean_dec_ref_cold(ptr noundef nonnull %.1.i) #10
  br label %lean_dec.exit15

lean_dec.exit15:                                  ; preds = %53, %52, %50, %lean_inc.exit
  tail call void @lean_inc_heartbeat() #10
  %54 = tail call noalias ptr @mi_malloc_small(i64 noundef 40) #10
  %55 = icmp eq ptr %54, null
  br i1 %55, label %56, label %lean_alloc_closure.exit

56:                                               ; preds = %lean_dec.exit15
  tail call void @lean_internal_panic_out_of_memory() #11
  unreachable

lean_alloc_closure.exit:                          ; preds = %lean_dec.exit15
  %57 = getelementptr inbounds nuw i8, ptr %54, i64 4
  store i32 1, ptr %54, align 4, !tbaa !4
  store i32 -184549336, ptr %57, align 4
  %58 = getelementptr inbounds nuw i8, ptr %54, i64 8
  store ptr @l___private_Lean_Environment_0__Lean_setImportedEntries_unsafe__4___lambda__1___boxed, ptr %58, align 8, !tbaa !9
  %59 = getelementptr inbounds nuw i8, ptr %54, i64 16
  store i16 3, ptr %59, align 8, !tbaa !13
  %60 = getelementptr inbounds nuw i8, ptr %54, i64 18
  store i16 2, ptr %60, align 2, !tbaa !13
  %61 = getelementptr inbounds nuw i8, ptr %54, i64 24
  store ptr %1, ptr %61, align 8, !tbaa !9
  %62 = getelementptr inbounds nuw i8, ptr %54, i64 32
  store ptr %2, ptr %62, align 8, !tbaa !9
  %63 = tail call ptr @l___private_Lean_Environment_0__Lean_EnvExtension_modifyStateImpl___rarg(ptr noundef %36, ptr noundef %3, ptr noundef nonnull %54)
  br i1 %.not, label %64, label %lean_dec.exit

64:                                               ; preds = %lean_alloc_closure.exit
  %65 = load i32, ptr %36, align 4, !tbaa !4
  %66 = icmp sgt i32 %65, 1
  br i1 %66, label %67, label %69, !prof !11

67:                                               ; preds = %64
  %68 = add nsw i32 %65, -1
  store i32 %68, ptr %36, align 4, !tbaa !4
  br label %lean_dec.exit

69:                                               ; preds = %64
  %.not.i16 = icmp eq i32 %65, 0
  br i1 %.not.i16, label %lean_dec.exit, label %70

70:                                               ; preds = %69
  tail call void @lean_dec_ref_cold(ptr noundef nonnull %36) #10
  br label %lean_dec.exit

lean_dec.exit:                                    ; preds = %70, %69, %67, %lean_alloc_closure.exit
  ret ptr %63
}